target datalayout = "e-m:e-p270:32:32-p271:32:32-p272:64:64-i64:64-i128:128-f80:128-n8:16:32:64-S128"
target triple = "x86_64-pc-linux-gnu"

%struct._lv_fragment_manager_t = type { ptr, %struct.lv_ll_t, %struct.lv_ll_t }
%struct.lv_ll_t = type { i32, ptr, ptr }
%struct._lv_fragment_managed_states_t = type { ptr, ptr, ptr, ptr, i8, i8, i8 }

; Function Attrs: nounwind uwtable
define internal void @item_delete_obj(ptr noundef %0) #0 {
  %2 = alloca ptr, align 8
  store ptr %0, ptr %2, align 8, !tbaa !3
  %3 = load ptr, ptr %2, align 8, !tbaa !3
  %4 = getelementptr inbounds nuw %struct._lv_fragment_managed_states_t, ptr %3, i32 0, i32 3
  %5 = load ptr, ptr %4, align 8, !tbaa !13
  call void @lv_fragment_delete_obj(ptr noundef %5)
  ret void
}

; Function Attrs: nounwind uwtable
define void @lv_fragment_manager_delete_obj(ptr noundef %0) #0 {
  %2 = alloca ptr, align 8
  %3 = alloca ptr, align 8
  store ptr %0, ptr %2, align 8, !tbaa !3
  br label %4

4:                                                ; preds = %1
  %5 = load ptr, ptr %2, align 8, !tbaa !3
  %6 = icmp ne ptr %5, null
  br i1 %6, label %11, label %7

7:                                                ; preds = %4
  br label %8

8:                                                ; preds = %7
  br label %9

9:                                                ; preds = %8
  br label %10

10:                                               ; preds = %9, %10
  br label %10

11:                                               ; preds = %4
  br label %12

12:                                               ; preds = %11
  call void @llvm.lifetime.start.p0(i64 8, ptr %3) #4
  store ptr null, ptr %3, align 8, !tbaa !3
  %13 = load ptr, ptr %2, align 8, !tbaa !3
  %14 = getelementptr inbounds nuw %struct._lv_fragment_manager_t, ptr %13, i32 0, i32 1
  %15 = call ptr @lv_ll_get_tail(ptr noundef %14)
  store ptr %15, ptr %3, align 8, !tbaa !3
  br label %16

16:                                               ; preds = %21, %12
  %17 = load ptr, ptr %3, align 8, !tbaa !3
  %18 = icmp ne ptr %17, null
  br i1 %18, label %19, label %26

19:                                               ; preds = %16
  %20 = load ptr, ptr %3, align 8, !tbaa !3
  call void @item_delete_obj(ptr noundef %20)
  br label %21

21:                                               ; preds = %19
  %22 = load ptr, ptr %2, align 8, !tbaa !3
  %23 = getelementptr inbounds nuw %struct._lv_fragment_manager_t, ptr %22, i32 0, i32 1
  %24 = load ptr, ptr %3, align 8, !tbaa !3
  %25 = call ptr @lv_ll_get_prev(ptr noundef %23, ptr noundef %24)
  store ptr %25, ptr %3, align 8, !tbaa !3
  br label %16, !llvm.loop !29

26:                                               ; preds = %16
  call void @llvm.lifetime.end.p0(i64 8, ptr %3) #4
  ret void
}