; Function Attrs: nounwind uwtable
define void @lv_fragment_manager_delete_obj(ptr noundef %0) local_unnamed_addr #0 {
  %.not = icmp eq ptr %0, null
  br i1 %.not, label %.preheader, label %2

.preheader:                                       ; preds = %1, %.preheader
  br label %.preheader

2:                                                ; preds = %1
  %3 = getelementptr inbounds nuw i8, ptr %0, i64 8
  %4 = tail call ptr @lv_ll_get_tail(ptr noundef nonnull %3) #3
  %.not78 = icmp eq ptr %4, null
  br i1 %.not78, label %._crit_edge, label %.lr.ph

.lr.ph:                                           ; preds = %2, %.lr.ph
  %.09 = phi ptr [ %6, %.lr.ph ], [ %4, %2 ]
  %5 = getelementptr i8, ptr %.09, i64 24
  %.0.val = load ptr, ptr %5, align 8, !tbaa !10
  tail call void @lv_fragment_delete_obj(ptr noundef %.0.val) #3
  %6 = tail call ptr @lv_ll_get_prev(ptr noundef nonnull %3, ptr noundef nonnull %.09) #3
  %.not7 = icmp eq ptr %6, null
  br i1 %.not7, label %._crit_edge, label %.lr.ph, !llvm.loop !29

._crit_edge:                                      ; preds = %.lr.ph, %2
  ret void
}